; Function Attrs: mustprogress nounwind uwtable
define hidden void @_ZN9CDSConfig30check_internal_module_propertyEPKcS1_(ptr noundef %0, ptr noundef %1) local_unnamed_addr #2 align 2 {
  %3 = tail call noundef zeroext i1 @_ZN9Arguments27is_internal_module_propertyEPKc(ptr noundef %0) #9
  br i1 %3, label %4, label %7

4:                                                ; preds = %2
  store i8 0, ptr @_ZN9CDSConfig35_is_using_optimized_module_handlingE, align 1
  store i8 0, ptr @_ZN9CDSConfig29_is_dumping_full_module_graphE, align 1
  store i8 0, ptr @_ZN9CDSConfig27_is_using_full_module_graphE, align 1
  %5 = load volatile ptr, ptr getelementptr inbounds (i8, ptr @_ZN16LogTagSetMappingILN6LogTag4typeE14ELS1_0ELS1_0ELS1_0ELS1_0ELS1_0EE7_tagsetE, i64 64), align 8
  %.not = icmp eq ptr %5, null
  br i1 %.not, label %7, label %6

6:                                                ; preds = %4
  tail call void (ptr, ...) @_ZN7LogImplILN6LogTag4typeE14ELS1_0ELS1_0ELS1_0ELS1_0ELS1_0EE5writeILN8LogLevel4typeE3EEEvPKcz(ptr noundef nonnull @.str.17, ptr noundef %0, ptr noundef %1)
  br label %7

7:                                                ; preds = %6, %4, %2
  ret void
}